target datalayout = "e-m:e-p270:32:32-p271:32:32-p272:64:64-i64:64-i128:128-f80:128-n8:16:32:64-S128"
target triple = "x86_64-pc-linux-gnu"

@.str.5 = private unnamed_addr constant [7 x i8] c"manual\00", align 1
@.str.6 = private unnamed_addr constant [5 x i8] c"ours\00", align 1
@.str.7 = private unnamed_addr constant [7 x i8] c"theirs\00", align 1
@.str.8 = private unnamed_addr constant [6 x i8] c"union\00", align 1
@.str.9 = private unnamed_addr constant [14 x i8] c"cat_sort_uniq\00", align 1

; Function Attrs: nounwind uwtable
define dso_local i32 @parse_notes_merge_strategy(ptr noundef %0, ptr noundef %1) #0 {
  %3 = alloca i32, align 4
  %4 = alloca ptr, align 8
  %5 = alloca ptr, align 8
  store ptr %0, ptr %4, align 8, !tbaa !13
  store ptr %1, ptr %5, align 8, !tbaa !36
  %6 = load ptr, ptr %4, align 8, !tbaa !13
  %7 = call i32 @strcmp(ptr noundef %6, ptr noundef @.str.5) #10
  %8 = icmp ne i32 %7, 0
  br i1 %8, label %11, label %9

9:                                                ; preds = %2
  %10 = load ptr, ptr %5, align 8, !tbaa !36
  store i32 0, ptr %10, align 4, !tbaa !33
  br label %40

11:                                               ; preds = %2
  %12 = load ptr, ptr %4, align 8, !tbaa !13
  %13 = call i32 @strcmp(ptr noundef %12, ptr noundef @.str.6) #10
  %14 = icmp ne i32 %13, 0
  br i1 %14, label %17, label %15

15:                                               ; preds = %11
  %16 = load ptr, ptr %5, align 8, !tbaa !36
  store i32 1, ptr %16, align 4, !tbaa !33
  br label %39

17:                                               ; preds = %11
  %18 = load ptr, ptr %4, align 8, !tbaa !13
  %19 = call i32 @strcmp(ptr noundef %18, ptr noundef @.str.7) #10
  %20 = icmp ne i32 %19, 0
  br i1 %20, label %23, label %21

21:                                               ; preds = %17
  %22 = load ptr, ptr %5, align 8, !tbaa !36
  store i32 2, ptr %22, align 4, !tbaa !33
  br label %38

23:                                               ; preds = %17
  %24 = load ptr, ptr %4, align 8, !tbaa !13
  %25 = call i32 @strcmp(ptr noundef %24, ptr noundef @.str.8) #10
  %26 = icmp ne i32 %25, 0
  br i1 %26, label %29, label %27

27:                                               ; preds = %23
  %28 = load ptr, ptr %5, align 8, !tbaa !36
  store i32 3, ptr %28, align 4, !tbaa !33
  br label %37

29:                                               ; preds = %23
  %30 = load ptr, ptr %4, align 8, !tbaa !13
  %31 = call i32 @strcmp(ptr noundef %30, ptr noundef @.str.9) #10
  %32 = icmp ne i32 %31, 0
  br i1 %32, label %35, label %33

33:                                               ; preds = %29
  %34 = load ptr, ptr %5, align 8, !tbaa !36
  store i32 4, ptr %34, align 4, !tbaa !33
  br label %36

35:                                               ; preds = %29
  store i32 -1, ptr %3, align 4
  br label %41

36:                                               ; preds = %33
  br label %37

37:                                               ; preds = %36, %27
  br label %38

38:                                               ; preds = %37, %21
  br label %39

39:                                               ; preds = %38, %15
  br label %40

40:                                               ; preds = %39, %9
  store i32 0, ptr %3, align 4
  br label %41

41:                                               ; preds = %40, %35
  %42 = load i32, ptr %3, align 4
  ret i32 %42
}