; Function Attrs: mustprogress nofree nounwind willreturn memory(argmem: readwrite) uwtable
define dso_local range(i32 -1, 1) i32 @parse_notes_merge_strategy(ptr noundef readonly captures(none) %0, ptr noundef writeonly captures(none) %1) local_unnamed_addr #6 {
  %3 = tail call i32 @strcmp(ptr noundef nonnull dereferenceable(1) %0, ptr noundef nonnull dereferenceable(7) @.str.5) #14
  %.not = icmp eq i32 %3, 0
  br i1 %.not, label %.sink.split, label %4

4:                                                ; preds = %2
  %5 = tail call i32 @strcmp(ptr noundef nonnull dereferenceable(1) %0, ptr noundef nonnull dereferenceable(5) @.str.6) #14
  %.not10 = icmp eq i32 %5, 0
  br i1 %.not10, label %.sink.split, label %6

6:                                                ; preds = %4
  %7 = tail call i32 @strcmp(ptr noundef nonnull dereferenceable(1) %0, ptr noundef nonnull dereferenceable(7) @.str.7) #14
  %.not11 = icmp eq i32 %7, 0
  br i1 %.not11, label %.sink.split, label %8

8:                                                ; preds = %6
  %9 = tail call i32 @strcmp(ptr noundef nonnull dereferenceable(1) %0, ptr noundef nonnull dereferenceable(6) @.str.8) #14
  %.not12 = icmp eq i32 %9, 0
  br i1 %.not12, label %.sink.split, label %10

10:                                               ; preds = %8
  %11 = tail call i32 @strcmp(ptr noundef nonnull dereferenceable(1) %0, ptr noundef nonnull dereferenceable(14) @.str.9) #14
  %.not13 = icmp eq i32 %11, 0
  br i1 %.not13, label %.sink.split, label %12

.sink.split:                                      ; preds = %10, %8, %6, %4, %2
  %.sink = phi i32 [ 0, %2 ], [ 1, %4 ], [ 2, %6 ], [ 3, %8 ], [ 4, %10 ]
  store i32 %.sink, ptr %1, align 4, !tbaa !26
  br label %12

12:                                               ; preds = %.sink.split, %10
  %.0 = phi i32 [ -1, %10 ], [ 0, %.sink.split ]
  ret i32 %.0
}